(iSearchReplaceGUI
SaveData
p1
(dp2
S'replacement_tuples'
p3
(lp4
(S'eosinophilic granuloma'
S'EG'
tp5
a(S'osteoblastoma'
S'Osteoblastoma'
tp6
a(S'aneurysmal bone cyst'
S'Aneurysmal bone cyst'
tp7
a(S'solitary bone cyst'
S'Solitary Bone cyst'
tp8
a(S'chondroblastoma'
S'Chondroblastoma'
tp9
a(S'hyperparathyroidism'
S'Hyperparathyroidism'
tp10
a(S'infection'
S'Infection'
tp11
a(S'McCune-Albright syndrome'
S'McCune Albright'
tp12
a(S'nonossifying fibroma'
S'nonossifying fibromas'
tp13
a(S'nonossifying fibroma'
S'NOFs'
tp14
a(S'multiple enchondromas'
S'multiple enchondroma'
tp15
a(S'nonossifying fibroma'
S'NOF'
tp16
a(S'osteoblastoma'
S'osteoblastomas'
tp17
a(S'posterior elements of the vertebral bodies'
S'posterior elements of the spine'
tp18
a(S'aneurysmal bone cyst'
S'ABC'
tp19
a(S'younger than 30'
S'less than 30'
tp20
a(S'aneurysmal bone cyst'
S'ABCs'
tp21
a(S'solitary bone cyst'
S'solitary bone cysts'
tp22
a(S'no pain unless fractured'
S'no pain unless there is a fx associated with it'
tp23
a(S'no pain unless fractured'
S'not painful unless fractured'
tp24
a(S'younger than 30'
S'less than 30yo'
tp25
a(S'metastatic disease'
S'metatstatic disease'
tp26
a(S'plasmacytoma'
S'plasmacytomas'
tp27
a(S'3-5 years before hematologic evidence of myeloma'
S'3-5 years before hematologic evidence'
tp28
a(S'abuts articular surface'
p29
S'abuts the articular surface'
p30
tp31
asS'user_settings'
p32
(dp33
S'/Users/law826/github/radiology_diagnoser/SearchReplace'
p34
S'/Users/law826/Desktop/MSK (1).txt'
p35
sS'/Users/law826/github/radiology_diagnoser'
p36
S'/Users/law826/Desktop/MSK (1).txt'
p37
ssb.