(i__main__
SaveData
p1
(dp2
S'replacement_tuples'
p3
(lp4
(S'eosinophilic granuloma'
S'EG'
tp5
a(S'osteoblastoma'
S'Osteoblastoma'
tp6
a(S'aneurysmal bone cyst'
p7
S'Aneurysmal bone cyst'
p8
tp9
a(S'solitary bone cyst'
p10
S'Solitary Bone cyst'
p11
tp12
asS'user_settings'
p13
(dp14
S'/Users/law826/github/radiology_diagnoser/SearchReplace'
p15
S'/Users/law826/Desktop/MSK (1).txt'
p16
ssb.