(i__main__
SaveData
p1
(dp2
S'replacement_tuples'
p3
(lp4
(S'eosinophilic granuloma'
p5
S'EG'
p6
tp7
asS'user_settings'
p8
(dp9
S'/Users/law826/github/radiology_diagnoser/SearchReplace'
p10
S'/Users/law826/Desktop/MSK (1).txt'
p11
ssb.