(iSearchReplaceGUI
SaveData
p1
(dp2
S'replacement_tuples'
p3
(lp4
(S'eosinophilic granuloma'
S'EG'
tp5
a(S'osteoblastoma'
S'Osteoblastoma'
tp6
a(S'aneurysmal bone cyst'
S'Aneurysmal bone cyst'
tp7
a(S'solitary bone cyst'
S'Solitary Bone cyst'
tp8
a(S'chondroblastoma'
S'Chondroblastoma'
tp9
a(S'hyperparathyroidism'
S'Hyperparathyroidism'
tp10
a(S'infection'
S'Infection'
tp11
a(S'McCune-Albright syndrome'
S'McCune Albright'
tp12
a(S'nonossifying fibroma'
S'nonossifying fibromas'
tp13
a(S'nonossifying fibroma'
S'NOFs'
tp14
a(S'multiple enchondromas'
S'multiple enchondroma'
tp15
a(S'nonossifying fibroma'
S'NOF'
tp16
a(S'osteoblastoma'
S'osteoblastomas'
tp17
a(S'posterior elements of the vertebral bodies'
S'posterior elements of the spine'
tp18
a(S'aneurysmal bone cyst'
S'ABC'
tp19
a(S'younger than 30'
S'less than 30'
tp20
a(S'aneurysmal bone cyst'
S'ABCs'
tp21
a(S'solitary bone cyst'
S'solitary bone cysts'
tp22
a(S'no pain unless fractured'
S'no pain unless there is a fx associated with it'
tp23
a(S'no pain unless fractured'
S'not painful unless fractured'
tp24
a(S'younger than 30'
S'less than 30yo'
tp25
a(S'metastatic disease'
S'metatstatic disease'
tp26
a(S'plasmacytoma'
S'plasmacytomas'
tp27
a(S'abuts articular surface'
S'abuts the articular surface'
tp28
a(S'younger than 30'
S'less than 30'
tp29
a(S'younger than 30'
S'younger than age 30'
tp30
a(S'younger than 30'
S'younger than age 30'
tp31
a(S'plasmacytoma'
S'plasmacytomas'
tp32
a(S'metastatic disease'
S'metatstatic disease'
tp33
a(S'aneurysmal bone cyst'
S'aneursymal bone cyst'
tp34
a(S'tuberculosis'
S'TB'
tp35
a(S'abuts articular surface'
S'abuts the articular surface'
tp36
a(S'calcifications'
S'calcification present'
tp37
a(S'metastasis'
S'metastatic dz'
tp38
a(S'20 - 40 years old'
S'20-40yo'
tp39
a(S'chondromyxoid fibroma'
S'chondromyxoid fibroma fibroma fibroma fibroma fibroma'
tp40
a(S'chondromyxoid fibroma'
S'chondromyxoid fibroma fibroma fibroma fibroma fibroma fibroma'
tp41
a(S'asymptomatic'
S'asymtomatic'
tp42
a(S'20 - 40 years old'
S'20-40yo'
tp43
a(S'3-5 years before hematologic evidence of myeloma'
S'3-5 years before hematologic evidence of myeloma of myeloma of myeloma of myeloma of myeloma of myeloma of myeloma of myeloma of myeloma'
tp44
a(S'3-5 years before hematologic evidence of myeloma'
S'3-5 years before hematologic evidence of myeloma of myeloma of myeloma of myeloma of myeloma of myeloma of myeloma of myeloma of myeloma of myeloma of myeloma of myeloma'
tp45
a(S'Brodie abscess'
S'Brodie Abscess'
tp46
a(S'Brodie abscess'
S'Brodie Abscess'
tp47
a(S'older than 40'
S'older than age 40'
tp48
a(S'osteosarcoma'
S'osteosarcomas'
tp49
a(S'Ewing sarcoma'
S'Ewings sarcoma'
tp50
a(S'malignant fibrous histiocytoma'
S'malignant fibrous histiocytomas'
tp51
a(S'chondrosarcoma'
S'chondrosarcomas'
tp52
a(S'fibrosarcoma'
S'fibrosarcomas'
tp53
a(S'metastatic disease'
S'metastasis'
tp54
a(S'older than 40'
S'older than age 40'
tp55
a(S'older than 40'
p56
S'greater than 40 years old'
p57
tp58
asS'user_settings'
p59
(dp60
S'/Users/law826/github/radiology_diagnoser/SearchReplace'
p61
S'/Users/law826/Desktop/MSK (1).txt'
p62
sS'/Users/law826/github/radiology_diagnoser'
p63
S'/Users/law826/Desktop/MSK.txt'
p64
ssb.